(lp0
(dp1
S'ifName_fa4'
p2
S'Fa4'
p3
sS'ifOutUcastPkts_fa4'
p4
S'11780417'
p5
sS'timestamp'
p6
F1477780082.116504
sS'ifInUcastPkts_fa4'
p7
S'10893393'
p8
sS'ifInOctets_fa4'
p9
S'111763050'
p10
sS'ifOutOctets_fa4'
p11
S'291535683'
p12
sS'ifDescr_fa4'
p13
S'FastEthernet4'
p14
sa(dp15
S'ifName_fa4'
p16
S'Fa4'
p17
sS'ifOutUcastPkts_fa4'
p18
S'11785465'
p19
sS'timestamp'
p20
F1477780380.682549
sS'ifInUcastPkts_fa4'
p21
S'10898429'
p22
sS'ifInOctets_fa4'
p23
S'112216168'
p24
sS'ifOutOctets_fa4'
p25
S'292039273'
p26
sS'ifDescr_fa4'
p27
S'FastEthernet4'
p28
sa(dp29
S'ifName_fa4'
p30
S'Fa4'
p31
sS'ifOutUcastPkts_fa4'
p32
S'11800405'
p33
sS'timestamp'
p34
F1477780681.214831
sS'ifInUcastPkts_fa4'
p35
S'10913371'
p36
sS'ifInOctets_fa4'
p37
S'113560631'
p38
sS'ifOutOctets_fa4'
p39
S'293527900'
p40
sS'ifDescr_fa4'
p41
S'FastEthernet4'
p42
sa(dp43
S'ifName_fa4'
p44
S'Fa4'
p45
sS'ifOutUcastPkts_fa4'
p46
S'11815353'
p47
sS'timestamp'
p48
F1477780980.912932
sS'ifInUcastPkts_fa4'
p49
S'10928322'
p50
sS'ifInOctets_fa4'
p51
S'114905680'
p52
sS'ifOutOctets_fa4'
p53
S'295016619'
p54
sS'ifDescr_fa4'
p55
S'FastEthernet4'
p56
sa(dp57
S'ifName_fa4'
p58
S'Fa4'
p59
sS'ifOutUcastPkts_fa4'
p60
S'11825346'
p61
sS'timestamp'
p62
F1477781280.449032
sS'ifInUcastPkts_fa4'
p63
S'10938317'
p64
sS'ifInOctets_fa4'
p65
S'115805667'
p66
sS'ifOutOctets_fa4'
p67
S'296014090'
p68
sS'ifDescr_fa4'
p69
S'FastEthernet4'
p70
sa(dp71
S'ifName_fa4'
p72
S'Fa4'
p73
sS'ifOutUcastPkts_fa4'
p74
S'11837811'
p75
sS'timestamp'
p76
F1477781580.993458
sS'ifInUcastPkts_fa4'
p77
S'10950785'
p78
sS'ifInOctets_fa4'
p79
S'116927638'
p80
sS'ifOutOctets_fa4'
p81
S'297256381'
p82
sS'ifDescr_fa4'
p83
S'FastEthernet4'
p84
sa(dp85
S'ifName_fa4'
p86
S'Fa4'
p87
sS'ifOutUcastPkts_fa4'
p88
S'11845327'
p89
sS'timestamp'
p90
F1477781880.502096
sS'ifInUcastPkts_fa4'
p91
S'10958303'
p92
sS'ifInOctets_fa4'
p93
S'117604791'
p94
sS'ifOutOctets_fa4'
p95
S'298007746'
p96
sS'ifDescr_fa4'
p97
S'FastEthernet4'
p98
sa(dp99
S'ifName_fa4'
p100
S'Fa4'
p101
sS'ifOutUcastPkts_fa4'
p102
S'11857799'
p103
sS'timestamp'
p104
F1477782181.13462
sS'ifInUcastPkts_fa4'
p105
S'10970777'
p106
sS'ifInOctets_fa4'
p107
S'118727368'
p108
sS'ifOutOctets_fa4'
p109
S'299251015'
p110
sS'ifDescr_fa4'
p111
S'FastEthernet4'
p112
sa(dp113
S'ifName_fa4'
p114
S'Fa4'
p115
sS'ifOutUcastPkts_fa4'
p116
S'11870269'
p117
sS'timestamp'
p118
F1477782480.635601
sS'ifInUcastPkts_fa4'
p119
S'10983249'
p120
sS'ifInOctets_fa4'
p121
S'119850051'
p122
sS'ifOutOctets_fa4'
p123
S'300494029'
p124
sS'ifDescr_fa4'
p125
S'FastEthernet4'
p126
sa(dp127
S'ifName_fa4'
p128
S'Fa4'
p129
sS'ifOutUcastPkts_fa4'
p130
S'11882736'
p131
sS'timestamp'
p132
F1477782781.150229
sS'ifInUcastPkts_fa4'
p133
S'10995718'
p134
sS'ifInOctets_fa4'
p135
S'120972145'
p136
sS'ifOutOctets_fa4'
p137
S'301736762'
p138
sS'ifDescr_fa4'
p139
S'FastEthernet4'
p140
sa(dp141
S'ifName_fa4'
p142
S'Fa4'
p143
sS'ifOutUcastPkts_fa4'
p144
S'11892735'
p145
sS'timestamp'
p146
F1477783080.636214
sS'ifInUcastPkts_fa4'
p147
S'11005718'
p148
sS'ifInOctets_fa4'
p149
S'121872402'
p150
sS'ifOutOctets_fa4'
p151
S'302734243'
p152
sS'ifDescr_fa4'
p153
S'FastEthernet4'
p154
sa(dp155
S'ifName_fa4'
p156
S'Fa4'
p157
sS'ifOutUcastPkts_fa4'
p158
S'11910239'
p159
sS'timestamp'
p160
F1477783381.226756
sS'ifInUcastPkts_fa4'
p161
S'11023226'
p162
sS'ifInOctets_fa4'
p163
S'123447154'
p164
sS'ifOutOctets_fa4'
p165
S'304477257'
p166
sS'ifDescr_fa4'
p167
S'FastEthernet4'
p168
sa(dp169
S'ifName_fa4'
p170
S'Fa4'
p171
sS'ifOutUcastPkts_fa4'
p172
S'11925105'
p173
sS'timestamp'
p174
F1477783680.780187
sS'ifInUcastPkts_fa4'
p175
S'11038094'
p176
sS'ifInOctets_fa4'
p177
S'124784886'
p178
sS'ifOutOctets_fa4'
p179
S'305957748'
p180
sS'ifDescr_fa4'
p181
S'FastEthernet4'
p182
sa.